; Function Attrs: mustprogress uwtable
define hidden noundef zeroext i1 @_ZN3sls7bv_eval15eval_is_correctEP3app(ptr noundef nonnull align 8 dereferenceable(865) %0, ptr noundef %1) local_unnamed_addr #3 align 2 {
  %3 = tail call noundef zeroext i1 @_ZNK3sls7bv_eval9can_eval1EP4expr(ptr noundef nonnull align 8 dereferenceable(865) %0, ptr noundef %1)
  br i1 %3, label %4, label %43

4:                                                ; preds = %2
  %5 = load ptr, ptr %0, align 8, !tbaa !48
  %6 = tail call noundef zeroext i1 @_ZNK11ast_manager7is_boolEPK4expr(ptr noundef nonnull align 8 dereferenceable(976) %5, ptr noundef %1)
  br i1 %6, label %7, label %14

7:                                                ; preds = %4
  %8 = getelementptr inbounds nuw i8, ptr %0, i64 8
  %9 = load ptr, ptr %8, align 8, !tbaa !163
  %10 = tail call noundef zeroext i1 @_ZN3sls7context7is_trueEP4expr(ptr noundef nonnull align 8 dereferenceable(321) %9, ptr noundef %1)
  %11 = tail call noundef zeroext i1 @_ZNK3sls7bv_eval5bval1EP4expr(ptr noundef nonnull align 8 dereferenceable(865) %0, ptr noundef %1)
  %12 = xor i1 %10, %11
  %13 = xor i1 %12, true
  br label %43

14:                                               ; preds = %4
  %15 = getelementptr inbounds nuw i8, ptr %0, i64 424
  %16 = tail call noundef ptr @_ZNK4expr8get_sortEv(ptr noundef nonnull align 4 dereferenceable(16) %1)
  %17 = tail call noundef zeroext i1 @_ZNK14bv_recognizers10is_bv_sortEPK4sort(ptr noundef nonnull align 4 dereferenceable(4) %15, ptr noundef %16)
  br i1 %17, label %18, label %42

18:                                               ; preds = %14
  %19 = getelementptr inbounds nuw i8, ptr %1, i64 4
  %20 = load i32, ptr %19, align 4
  %21 = and i32 %20, 65535
  %22 = icmp eq i32 %21, 0
  br i1 %22, label %23, label %_ZNK11ast_manager6is_iteEPK4expr.exit.thread

23:                                               ; preds = %18
  %24 = getelementptr inbounds nuw i8, ptr %1, i64 16
  %25 = load ptr, ptr %24, align 8, !tbaa !109
  %26 = getelementptr inbounds nuw i8, ptr %25, i64 24
  %27 = load ptr, ptr %26, align 8, !tbaa !115
  %.not.i.i.i.i = icmp eq ptr %27, null
  br i1 %.not.i.i.i.i, label %_ZNK11ast_manager6is_iteEPK4expr.exit.thread, label %_ZNK11ast_manager6is_iteEPK4expr.exit

_ZNK11ast_manager6is_iteEPK4expr.exit:            ; preds = %23
  %28 = load i32, ptr %27, align 8, !tbaa !119
  %29 = icmp eq i32 %28, 0
  %30 = getelementptr inbounds nuw i8, ptr %27, i64 4
  %31 = load i32, ptr %30, align 4
  %32 = icmp eq i32 %31, 4
  %33 = select i1 %29, i1 %32, i1 false
  br i1 %33, label %43, label %_ZNK11ast_manager6is_iteEPK4expr.exit.thread

_ZNK11ast_manager6is_iteEPK4expr.exit.thread:     ; preds = %23, %18, %_ZNK11ast_manager6is_iteEPK4expr.exit
  %34 = getelementptr inbounds nuw i8, ptr %0, i64 544
  %35 = load i32, ptr %1, align 4, !tbaa !124
  %36 = load ptr, ptr %34, align 8, !tbaa !125
  %37 = zext i32 %35 to i64
  %38 = getelementptr inbounds nuw ptr, ptr %36, i64 %37
  %39 = load ptr, ptr %38, align 8, !tbaa !126
  tail call void @_ZNK3sls7bv_eval4evalEP4exprRNS_12bv_valuationE(ptr noundef nonnull align 8 dereferenceable(865) %0, ptr noundef nonnull %1, ptr noundef nonnull align 8 dereferenceable(184) %39)
  %40 = getelementptr inbounds nuw i8, ptr %39, i64 160
  %41 = tail call noundef zeroext i1 @_ZN3slseqERKNS_5bvectES2_(ptr noundef nonnull align 8 dereferenceable(20) %40, ptr noundef nonnull align 8 dereferenceable(20) %39)
  br label %43

42:                                               ; preds = %14
  tail call void @_Z26notify_assertion_violationPKciS0_(ptr noundef nonnull @.str, i32 noundef 2126, ptr noundef nonnull @.str.3)
  tail call void @_Z18invoke_exit_actionj(i32 noundef 114)
  br label %43

43:                                               ; preds = %_ZNK11ast_manager6is_iteEPK4expr.exit, %2, %42, %_ZNK11ast_manager6is_iteEPK4expr.exit.thread, %7
  %.0 = phi i1 [ %13, %7 ], [ %41, %_ZNK11ast_manager6is_iteEPK4expr.exit.thread ], [ false, %42 ], [ false, %2 ], [ true, %_ZNK11ast_manager6is_iteEPK4expr.exit ]
  ret i1 %.0
}